target datalayout = "e-m:e-p270:32:32-p271:32:32-p272:64:64-i64:64-i128:128-f80:128-n8:16:32:64-S128"
target triple = "x86_64-pc-linux-gnu"

%struct.expert_field = type { i32, i32 }
%struct._asn1_ctx_t = type { i32, i32, i8, ptr, ptr, ptr, ptr, ptr, %struct.anon, %struct.anon.2, %struct.anon.3, ptr }
%struct.anon = type { i32, i8, i8, i8, ptr, ptr, i32, i32, ptr, ptr, ptr, %union.anon }
%union.anon = type { %struct.anon.0 }
%struct.anon.0 = type { ptr }
%struct.anon.2 = type { ptr, ptr, ptr }
%struct.anon.3 = type { i32, i8, ptr, i32, i32, ptr, ptr, ptr, %union.anon.4 }
%union.anon.4 = type { %struct.anon.5 }
%struct.anon.5 = type { ptr }
%struct._packet_info = type { ptr, ptr, i32, i32, %struct.nstime_t, %struct.nstime_t, %struct.nstime_t, i32, ptr, ptr, ptr, ptr, %struct._address, %struct._address, %struct._address, %struct._address, %struct._address, %struct._address, i32, ptr, i32, %struct.anon.7, i32, i32, i32, i32, ptr, i32, ptr, ptr, i16, i16, i32, i32, i16, i32, i32, ptr, ptr, ptr, i8, i8, i16, i16, i16, i32, i16, i16, ptr, ptr, ptr, ptr, ptr, i32 }
%struct.nstime_t = type { i64, i32 }
%struct._address = type { i32, i32, ptr, ptr }
%struct.anon.7 = type { i8, [3 x i8] }

@hf_oer_length_determinant = internal global i32 0, align 4
@.str.2 = private unnamed_addr constant [44 x i8] c"constrained_integer NO_BOUND to many octets\00", align 1
@.str.3 = private unnamed_addr constant [38 x i8] c"constrained_integer unexpected length\00", align 1
@ei_oer_undecoded = internal global %struct.expert_field zeroinitializer, align 4
@.str.41 = private unnamed_addr constant [28 x i8] c"something unknown here [%s]\00", align 1
@.str.42 = private unnamed_addr constant [18 x i8] c"[UNKNOWN OER: %s]\00", align 1

; Function Attrs: nounwind uwtable
define internal void @dissect_oer_not_decoded_yet(ptr noundef %0, ptr noundef %1, ptr noundef %2, ptr noundef %3) #0 {
  %5 = alloca ptr, align 8
  %6 = alloca ptr, align 8
  %7 = alloca ptr, align 8
  %8 = alloca ptr, align 8
  store ptr %0, ptr %5, align 8
  store ptr %1, ptr %6, align 8
  store ptr %2, ptr %7, align 8
  store ptr %3, ptr %8, align 8
  %9 = load ptr, ptr %5, align 8
  %10 = load ptr, ptr %6, align 8
  %11 = load ptr, ptr %7, align 8
  %12 = load ptr, ptr %8, align 8
  %13 = call ptr (ptr, ptr, ptr, ptr, i32, i32, ptr, ...) @proto_tree_add_expert_format(ptr noundef %9, ptr noundef %10, ptr noundef @ei_oer_undecoded, ptr noundef %11, i32 noundef 0, i32 noundef 0, ptr noundef @.str.41, ptr noundef %12)
  %14 = load ptr, ptr %6, align 8
  %15 = getelementptr inbounds %struct._packet_info, ptr %14, i32 0, i32 1
  %16 = load ptr, ptr %15, align 8
  %17 = load ptr, ptr %8, align 8
  call void (ptr, i32, ptr, ...) @col_append_fstr(ptr noundef %16, i32 noundef 25, ptr noundef @.str.42, ptr noundef %17)
  call void @except_throw(i64 noundef 1, i64 noundef 3, ptr noundef null) #4
  unreachable
}

; Function Attrs: nounwind uwtable
define i32 @dissect_oer_constrained_integer_64b_no_ub(ptr noundef %0, i32 noundef %1, ptr noundef %2, ptr noundef %3, i32 noundef %4, i64 noundef %5, i64 noundef %6, ptr noundef %7, i32 noundef %8) #0 {
  %10 = alloca ptr, align 8
  %11 = alloca i32, align 4
  %12 = alloca ptr, align 8
  %13 = alloca ptr, align 8
  %14 = alloca i32, align 4
  %15 = alloca i64, align 8
  %16 = alloca i64, align 8
  %17 = alloca ptr, align 8
  %18 = alloca i32, align 4
  %19 = alloca i64, align 8
  %20 = alloca i32, align 4
  store ptr %0, ptr %10, align 8
  store i32 %1, ptr %11, align 4
  store ptr %2, ptr %12, align 8
  store ptr %3, ptr %13, align 8
  store i32 %4, ptr %14, align 4
  store i64 %5, ptr %15, align 8
  store i64 %6, ptr %16, align 8
  store ptr %7, ptr %17, align 8
  store i32 %8, ptr %18, align 4
  store i64 0, ptr %19, align 8
  %21 = load i64, ptr %15, align 8
  %22 = icmp sge i64 %21, 0
  br i1 %22, label %23, label %59

23:                                               ; preds = %9
  %24 = load ptr, ptr %10, align 8
  %25 = load i32, ptr %11, align 4
  %26 = load ptr, ptr %12, align 8
  %27 = load ptr, ptr %13, align 8
  %28 = load i32, ptr @hf_oer_length_determinant, align 4
  %29 = call i32 @dissect_oer_length_determinant(ptr noundef %24, i32 noundef %25, ptr noundef %26, ptr noundef %27, i32 noundef %28, ptr noundef %20)
  store i32 %29, ptr %11, align 4
  %30 = load i32, ptr %20, align 4
  %31 = icmp ugt i32 %30, 0
  br i1 %31, label %32, label %52

32:                                               ; preds = %23
  %33 = load i32, ptr %20, align 4
  %34 = icmp ult i32 %33, 5
  br i1 %34, label %35, label %45

35:                                               ; preds = %32
  %36 = load ptr, ptr %13, align 8
  %37 = load i32, ptr %14, align 4
  %38 = load ptr, ptr %10, align 8
  %39 = load i32, ptr %11, align 4
  %40 = load i32, ptr %20, align 4
  %41 = call ptr @proto_tree_add_item_ret_uint64(ptr noundef %36, i32 noundef %37, ptr noundef %38, i32 noundef %39, i32 noundef %40, i32 noundef 0, ptr noundef %19)
  %42 = load i32, ptr %20, align 4
  %43 = load i32, ptr %11, align 4
  %44 = add i32 %43, %42
  store i32 %44, ptr %11, align 4
  br label %51

45:                                               ; preds = %32
  %46 = load ptr, ptr %13, align 8
  %47 = load ptr, ptr %12, align 8
  %48 = getelementptr inbounds %struct._asn1_ctx_t, ptr %47, i32 0, i32 3
  %49 = load ptr, ptr %48, align 8
  %50 = load ptr, ptr %10, align 8
  call void @dissect_oer_not_decoded_yet(ptr noundef %46, ptr noundef %49, ptr noundef %50, ptr noundef @.str.2)
  br label %51

51:                                               ; preds = %45, %35
  br label %58

52:                                               ; preds = %23
  %53 = load ptr, ptr %13, align 8
  %54 = load ptr, ptr %12, align 8
  %55 = getelementptr inbounds %struct._asn1_ctx_t, ptr %54, i32 0, i32 3
  %56 = load ptr, ptr %55, align 8
  %57 = load ptr, ptr %10, align 8
  call void @dissect_oer_not_decoded_yet(ptr noundef %53, ptr noundef %56, ptr noundef %57, ptr noundef @.str.3)
  br label %58

58:                                               ; preds = %52, %51
  br label %59

59:                                               ; preds = %58, %9
  %60 = load ptr, ptr %17, align 8
  %61 = icmp ne ptr %60, null
  br i1 %61, label %62, label %65

62:                                               ; preds = %59
  %63 = load i64, ptr %19, align 8
  %64 = load ptr, ptr %17, align 8
  store i64 %63, ptr %64, align 8
  br label %65

65:                                               ; preds = %62, %59
  %66 = load i32, ptr %11, align 4
  ret i32 %66
}