; Function Attrs: nounwind uwtable
define i32 @dissect_oer_constrained_integer_64b_no_ub(ptr noundef %0, i32 noundef %1, ptr noundef readonly captures(none) %2, ptr noundef %3, i32 noundef %4, i64 noundef %5, i64 noundef %6, ptr noundef writeonly %7, i32 noundef %8) local_unnamed_addr #0 {
  %10 = alloca i64, align 8
  %11 = alloca i32, align 4
  store i64 0, ptr %10, align 8
  %12 = icmp sgt i64 %5, -1
  br i1 %12, label %13, label %34

13:                                               ; preds = %9
  %14 = load i32, ptr @hf_oer_length_determinant, align 4
  %15 = call fastcc i32 @dissect_oer_length_determinant(ptr noundef %0, i32 noundef %1, ptr noundef %2, ptr noundef %3, i32 noundef %14, ptr noundef %11)
  %16 = load i32, ptr %11, align 4
  %.not = icmp eq i32 %16, 0
  br i1 %.not, label %28, label %17

17:                                               ; preds = %13
  %18 = icmp ult i32 %16, 5
  br i1 %18, label %19, label %22

19:                                               ; preds = %17
  %20 = call ptr @proto_tree_add_item_ret_uint64(ptr noundef %3, i32 noundef %4, ptr noundef %0, i32 noundef %15, i32 noundef %16, i32 noundef 0, ptr noundef nonnull %10) #8
  %21 = add i32 %16, %15
  br label %34

22:                                               ; preds = %17
  %23 = getelementptr inbounds nuw i8, ptr %2, i64 16
  %24 = load ptr, ptr %23, align 8
  %25 = tail call ptr (ptr, ptr, ptr, ptr, i32, i32, ptr, ...) @proto_tree_add_expert_format(ptr noundef %3, ptr noundef %24, ptr noundef nonnull @ei_oer_undecoded, ptr noundef %0, i32 noundef 0, i32 noundef 0, ptr noundef nonnull @.str.41, ptr noundef nonnull @.str.2) #8
  %26 = getelementptr inbounds nuw i8, ptr %24, i64 8
  %27 = load ptr, ptr %26, align 8
  tail call void (ptr, i32, ptr, ...) @col_append_fstr(ptr noundef %27, i32 noundef 25, ptr noundef nonnull @.str.42, ptr noundef nonnull @.str.2) #8
  tail call void @except_throw(i64 noundef 1, i64 noundef 3, ptr noundef null) #9
  unreachable

28:                                               ; preds = %13
  %29 = getelementptr inbounds nuw i8, ptr %2, i64 16
  %30 = load ptr, ptr %29, align 8
  %31 = tail call ptr (ptr, ptr, ptr, ptr, i32, i32, ptr, ...) @proto_tree_add_expert_format(ptr noundef %3, ptr noundef %30, ptr noundef nonnull @ei_oer_undecoded, ptr noundef %0, i32 noundef 0, i32 noundef 0, ptr noundef nonnull @.str.41, ptr noundef nonnull @.str.3) #8
  %32 = getelementptr inbounds nuw i8, ptr %30, i64 8
  %33 = load ptr, ptr %32, align 8
  tail call void (ptr, i32, ptr, ...) @col_append_fstr(ptr noundef %33, i32 noundef 25, ptr noundef nonnull @.str.42, ptr noundef nonnull @.str.3) #8
  tail call void @except_throw(i64 noundef 1, i64 noundef 3, ptr noundef null) #9
  unreachable

34:                                               ; preds = %19, %9
  %.0 = phi i32 [ %21, %19 ], [ %1, %9 ]
  %.not20 = icmp eq ptr %7, null
  br i1 %.not20, label %37, label %35

35:                                               ; preds = %34
  %36 = load i64, ptr %10, align 8
  store i64 %36, ptr %7, align 8
  br label %37

37:                                               ; preds = %35, %34
  ret i32 %.0
}